target datalayout = "e-m:e-p270:32:32-p271:32:32-p272:64:64-i64:64-i128:128-f80:128-n8:16:32:64-S128"
target triple = "x86_64-pc-linux-gnu"

%class.MemRegion = type { ptr, i64 }
%class.ObjectStartArray = type { [8 x i8], %class.PSVirtualSpace, ptr }
%class.PSVirtualSpace = type <{ ptr, i64, ptr, ptr, ptr, ptr, i8, [7 x i8] }>

@.str.4 = private unnamed_addr constant [51 x i8] c"src/hotspot/share/gc/parallel/objectStartArray.cpp\00", align 1
@.str.5 = private unnamed_addr constant [29 x i8] c"object start array expansion\00", align 1
@_ZN6OSInfo13_vm_page_sizeE = external global i64, align 8
@_ZN9CardTable19_card_size_in_wordsE = external global i32, align 4

; Function Attrs: mustprogress nounwind uwtable
define linkonce_odr hidden noundef i64 @_Z13pointer_deltaPVKvS0_m(ptr noundef %0, ptr noundef %1, i64 noundef %2) #1 comdat {
  %4 = alloca ptr, align 8
  %5 = alloca ptr, align 8
  %6 = alloca i64, align 8
  store ptr %0, ptr %4, align 8
  store ptr %1, ptr %5, align 8
  store i64 %2, ptr %6, align 8
  %7 = load ptr, ptr %4, align 8
  %8 = ptrtoint ptr %7 to i64
  %9 = load ptr, ptr %5, align 8
  %10 = ptrtoint ptr %9 to i64
  %11 = sub i64 %8, %10
  %12 = load i64, ptr %6, align 8
  %13 = udiv i64 %11, %12
  ret i64 %13
}

; Function Attrs: mustprogress nounwind uwtable
define linkonce_odr hidden noundef ptr @_ZNK14PSVirtualSpace18committed_low_addrEv(ptr noundef nonnull align 8 dereferenceable(49) %0) #1 comdat align 2 {
  %2 = alloca ptr, align 8
  store ptr %0, ptr %2, align 8
  %3 = load ptr, ptr %2, align 8
  %4 = getelementptr inbounds %class.PSVirtualSpace, ptr %3, i32 0, i32 4
  %5 = load ptr, ptr %4, align 8
  ret ptr %5
}

; Function Attrs: mustprogress nounwind uwtable
define linkonce_odr hidden noundef ptr @_ZNK14PSVirtualSpace19committed_high_addrEv(ptr noundef nonnull align 8 dereferenceable(49) %0) #1 comdat align 2 {
  %2 = alloca ptr, align 8
  store ptr %0, ptr %2, align 8
  %3 = load ptr, ptr %2, align 8
  %4 = getelementptr inbounds %class.PSVirtualSpace, ptr %3, i32 0, i32 5
  %5 = load ptr, ptr %4, align 8
  ret ptr %5
}

; Function Attrs: mustprogress nounwind uwtable
define linkonce_odr hidden noundef i64 @_Z10align_downImmTnNSt9enable_ifIXcvbsr3std11is_integralIT_EE5valueEiE4typeELi0EES1_S1_T0_(i64 noundef %0, i64 noundef %1) #1 comdat {
  %3 = alloca i64, align 8
  %4 = alloca i64, align 8
  %5 = alloca i64, align 8
  store i64 %0, ptr %3, align 8
  store i64 %1, ptr %4, align 8
  %6 = load i64, ptr %3, align 8
  %7 = load i64, ptr %4, align 8
  %8 = call noundef i64 @_ZL14alignment_maskImTnNSt9enable_ifIXcvbsr3std11is_integralIT_EE5valueEiE4typeELi0EES1_S1_(i64 noundef %7)
  %9 = xor i64 %8, -1
  %10 = and i64 %6, %9
  store i64 %10, ptr %5, align 8
  %11 = load i64, ptr %5, align 8
  ret i64 %11
}

; Function Attrs: mustprogress nounwind uwtable
define linkonce_odr hidden noundef i64 @_Z12checked_castImmET_T0_(i64 noundef %0) #1 comdat {
  %2 = alloca i64, align 8
  %3 = alloca i64, align 8
  store i64 %0, ptr %2, align 8
  %4 = load i64, ptr %2, align 8
  store i64 %4, ptr %3, align 8
  %5 = load i64, ptr %3, align 8
  ret i64 %5
}

; Function Attrs: mustprogress nounwind uwtable
define internal noundef i64 @_ZL14alignment_maskImTnNSt9enable_ifIXcvbsr3std11is_integralIT_EE5valueEiE4typeELi0EES1_S1_(i64 noundef %0) #1 {
  %2 = alloca i64, align 8
  store i64 %0, ptr %2, align 8
  %3 = load i64, ptr %2, align 8
  %4 = sub i64 %3, 1
  ret i64 %4
}

; Function Attrs: mustprogress nounwind uwtable
define linkonce_odr hidden noundef i64 @_ZN6OSInfo12vm_page_sizeEv() #1 comdat align 2 {
  %1 = load i64, ptr @_ZN6OSInfo13_vm_page_sizeE, align 8
  ret i64 %1
}

; Function Attrs: mustprogress nounwind uwtable
define linkonce_odr hidden noundef i32 @_ZN9CardTable18card_size_in_wordsEv() #1 comdat align 2 {
  %1 = load i32, ptr @_ZN9CardTable19_card_size_in_wordsE, align 4
  ret i32 %1
}

; Function Attrs: mustprogress nounwind uwtable
define linkonce_odr hidden noundef i64 @_ZNK9MemRegion9word_sizeEv(ptr noundef nonnull align 8 dereferenceable(16) %0) #1 comdat align 2 {
  %2 = alloca ptr, align 8
  store ptr %0, ptr %2, align 8
  %3 = load ptr, ptr %2, align 8
  %4 = getelementptr inbounds %class.MemRegion, ptr %3, i32 0, i32 1
  %5 = load i64, ptr %4, align 8
  ret i64 %5
}

; Function Attrs: mustprogress nounwind uwtable
define linkonce_odr hidden noundef i64 @_ZNK14PSVirtualSpace14committed_sizeEv(ptr noundef nonnull align 8 dereferenceable(49) %0) #1 comdat align 2 {
  %2 = alloca ptr, align 8
  store ptr %0, ptr %2, align 8
  %3 = load ptr, ptr %2, align 8
  %4 = call noundef ptr @_ZNK14PSVirtualSpace19committed_high_addrEv(ptr noundef nonnull align 8 dereferenceable(49) %3)
  %5 = call noundef ptr @_ZNK14PSVirtualSpace18committed_low_addrEv(ptr noundef nonnull align 8 dereferenceable(49) %3)
  %6 = call noundef i64 @_Z13pointer_deltaPVKvS0_m(ptr noundef %4, ptr noundef %5, i64 noundef 1)
  ret i64 %6
}

; Function Attrs: mustprogress nounwind uwtable
define linkonce_odr hidden noundef i64 @_Z8align_upImmTnNSt9enable_ifIXcvbsr3std11is_integralIT_EE5valueEiE4typeELi0EES1_S1_T0_(i64 noundef %0, i64 noundef %1) #1 comdat {
  %3 = alloca i64, align 8
  %4 = alloca i64, align 8
  %5 = alloca i64, align 8
  store i64 %0, ptr %3, align 8
  store i64 %1, ptr %4, align 8
  %6 = load i64, ptr %3, align 8
  %7 = load i64, ptr %4, align 8
  %8 = call noundef i64 @_ZL14alignment_maskImTnNSt9enable_ifIXcvbsr3std11is_integralIT_EE5valueEiE4typeELi0EES1_S1_(i64 noundef %7)
  %9 = add i64 %6, %8
  %10 = call noundef i64 @_Z12checked_castImmET_T0_(i64 noundef %9)
  store i64 %10, ptr %5, align 8
  %11 = load i64, ptr %5, align 8
  %12 = load i64, ptr %4, align 8
  %13 = call noundef i64 @_Z10align_downImmTnNSt9enable_ifIXcvbsr3std11is_integralIT_EE5valueEiE4typeELi0EES1_S1_T0_(i64 noundef %11, i64 noundef %12)
  ret i64 %13
}

; Function Attrs: mustprogress nounwind uwtable
define linkonce_odr hidden noundef i64 @_ZN2os12vm_page_sizeEv() #1 comdat align 2 {
  %1 = call noundef i64 @_ZN6OSInfo12vm_page_sizeEv()
  ret i64 %1
}

; Function Attrs: mustprogress nounwind uwtable
define internal noundef i64 @_ZL18num_bytes_required9MemRegion(ptr %0, i64 %1) #1 {
  %3 = alloca %class.MemRegion, align 8
  %4 = getelementptr inbounds { ptr, i64 }, ptr %3, i32 0, i32 0
  store ptr %0, ptr %4, align 8
  %5 = getelementptr inbounds { ptr, i64 }, ptr %3, i32 0, i32 1
  store i64 %1, ptr %5, align 8
  %6 = call noundef i64 @_ZNK9MemRegion9word_sizeEv(ptr noundef nonnull align 8 dereferenceable(16) %3)
  %7 = call noundef i32 @_ZN9CardTable18card_size_in_wordsEv()
  %8 = zext i32 %7 to i64
  %9 = udiv i64 %6, %8
  ret i64 %9
}

; Function Attrs: mustprogress nounwind uwtable
define hidden void @_ZN16ObjectStartArray18set_covered_regionE9MemRegion(ptr noundef nonnull align 8 dereferenceable(72) %0, ptr %1, i64 %2) #1 align 2 {
  %4 = alloca %class.MemRegion, align 8
  %5 = alloca ptr, align 8
  %6 = alloca i64, align 8
  %7 = alloca %class.MemRegion, align 8
  %8 = alloca i64, align 8
  %9 = alloca i64, align 8
  %10 = alloca i64, align 8
  %11 = getelementptr inbounds { ptr, i64 }, ptr %4, i32 0, i32 0
  store ptr %1, ptr %11, align 8
  %12 = getelementptr inbounds { ptr, i64 }, ptr %4, i32 0, i32 1
  store i64 %2, ptr %12, align 8
  store ptr %0, ptr %5, align 8
  %13 = load ptr, ptr %5, align 8
  call void @llvm.memcpy.p0.p0.i64(ptr align 8 %7, ptr align 8 %4, i64 16, i1 false)
  %14 = getelementptr inbounds { ptr, i64 }, ptr %7, i32 0, i32 0
  %15 = load ptr, ptr %14, align 8
  %16 = getelementptr inbounds { ptr, i64 }, ptr %7, i32 0, i32 1
  %17 = load i64, ptr %16, align 8
  %18 = call noundef i64 @_ZL18num_bytes_required9MemRegion(ptr %15, i64 %17)
  store i64 %18, ptr %6, align 8
  %19 = load i64, ptr %6, align 8
  %20 = call noundef i64 @_ZN2os12vm_page_sizeEv()
  %21 = call noundef i64 @_Z8align_upImmTnNSt9enable_ifIXcvbsr3std11is_integralIT_EE5valueEiE4typeELi0EES1_S1_T0_(i64 noundef %19, i64 noundef %20)
  store i64 %21, ptr %6, align 8
  %22 = getelementptr inbounds %class.ObjectStartArray, ptr %13, i32 0, i32 1
  %23 = call noundef i64 @_ZNK14PSVirtualSpace14committed_sizeEv(ptr noundef nonnull align 8 dereferenceable(49) %22)
  store i64 %23, ptr %8, align 8
  %24 = load i64, ptr %6, align 8
  %25 = load i64, ptr %8, align 8
  %26 = icmp eq i64 %24, %25
  br i1 %26, label %27, label %28

27:                                               ; preds = %3
  br label %51

28:                                               ; preds = %3
  %29 = load i64, ptr %6, align 8
  %30 = load i64, ptr %8, align 8
  %31 = icmp ugt i64 %29, %30
  br i1 %31, label %32, label %44

32:                                               ; preds = %28
  %33 = load i64, ptr %6, align 8
  %34 = load i64, ptr %8, align 8
  %35 = sub i64 %33, %34
  store i64 %35, ptr %9, align 8
  %36 = getelementptr inbounds %class.ObjectStartArray, ptr %13, i32 0, i32 1
  %37 = load i64, ptr %9, align 8
  %38 = call noundef zeroext i1 @_ZN14PSVirtualSpace9expand_byEm(ptr noundef nonnull align 8 dereferenceable(49) %36, i64 noundef %37)
  br i1 %38, label %43, label %39

39:                                               ; preds = %32
  br label %40

40:                                               ; preds = %39
  %41 = load i64, ptr %9, align 8
  call void (ptr, i32, i64, i32, ptr, ...) @_Z23report_vm_out_of_memoryPKcim11VMErrorTypeS0_z(ptr noundef @.str.4, i32 noundef 81, i64 noundef %41, i32 noundef -536870910, ptr noundef @.str.5) #8
  unreachable

42:                                               ; No predecessors!
  br label %43

43:                                               ; preds = %42, %32
  br label %51

44:                                               ; preds = %28
  %45 = load i64, ptr %8, align 8
  %46 = load i64, ptr %6, align 8
  %47 = sub i64 %45, %46
  store i64 %47, ptr %10, align 8
  %48 = getelementptr inbounds %class.ObjectStartArray, ptr %13, i32 0, i32 1
  %49 = load i64, ptr %10, align 8
  %50 = call noundef zeroext i1 @_ZN14PSVirtualSpace9shrink_byEm(ptr noundef nonnull align 8 dereferenceable(49) %48, i64 noundef %49)
  br label %51

51:                                               ; preds = %44, %43, %27
  ret void
}