; Function Attrs: mustprogress nounwind uwtable
define hidden void @_ZN16ObjectStartArray18set_covered_regionE9MemRegion(ptr noundef nonnull align 8 dereferenceable(72) %0, ptr nocapture readnone %1, i64 %2) local_unnamed_addr #0 align 2 {
  %4 = load i32, ptr @_ZN9CardTable19_card_size_in_wordsE, align 4
  %5 = zext i32 %4 to i64
  %6 = udiv i64 %2, %5
  %7 = load i64, ptr @_ZN6OSInfo13_vm_page_sizeE, align 8
  %8 = add i64 %6, -1
  %9 = add i64 %8, %7
  %10 = sub i64 0, %7
  %11 = and i64 %9, %10
  %12 = getelementptr inbounds i8, ptr %0, i64 8
  %13 = getelementptr inbounds i8, ptr %0, i64 48
  %14 = load ptr, ptr %13, align 8
  %15 = getelementptr inbounds i8, ptr %0, i64 40
  %16 = load ptr, ptr %15, align 8
  %17 = ptrtoint ptr %14 to i64
  %18 = ptrtoint ptr %16 to i64
  %19 = sub i64 %17, %18
  %20 = icmp eq i64 %11, %19
  br i1 %20, label %30, label %21

21:                                               ; preds = %3
  %22 = icmp ugt i64 %11, %19
  br i1 %22, label %23, label %27

23:                                               ; preds = %21
  %24 = sub i64 %11, %19
  %25 = tail call noundef zeroext i1 @_ZN14PSVirtualSpace9expand_byEm(ptr noundef nonnull align 8 dereferenceable(49) %12, i64 noundef %24) #9
  br i1 %25, label %30, label %26

26:                                               ; preds = %23
  tail call void (ptr, i32, i64, i32, ptr, ...) @_Z23report_vm_out_of_memoryPKcim11VMErrorTypeS0_z(ptr noundef nonnull @.str.4, i32 noundef 81, i64 noundef %24, i32 noundef -536870910, ptr noundef nonnull @.str.5) #10
  unreachable

27:                                               ; preds = %21
  %28 = sub i64 %19, %11
  %29 = tail call noundef zeroext i1 @_ZN14PSVirtualSpace9shrink_byEm(ptr noundef nonnull align 8 dereferenceable(49) %12, i64 noundef %28) #9
  br label %30

30:                                               ; preds = %23, %3, %27
  ret void
}